target datalayout = "e-m:e-p270:32:32-p271:32:32-p272:64:64-i64:64-i128:128-f80:128-n8:16:32:64-S128"
target triple = "x86_64-pc-linux-gnu"

%struct.H5E_stack_t = type { i64, [32 x %struct.H5E_entry_t], %struct.H5E_auto_op_t, ptr, i32 }
%struct.H5E_entry_t = type { i8, %struct.H5E_error2_t }
%struct.H5E_error2_t = type { i64, i64, i64, i32, ptr, ptr, ptr }
%struct.H5E_auto_op_t = type { i32, i8, ptr, ptr, ptr, ptr }

@H5E_ERROR_g = global i64 -1, align 8
@H5E_FUNC_g = global i64 -1, align 8
@H5E_CANTINIT_g = global i64 -1, align 8
@H5E_CANTGET_g = global i64 -1, align 8
@H5E_CANTSET_g = global i64 -1, align 8
@H5E_init_g = external global i8, align 1
@H5_libterm_g = external global i8, align 1
@.str.1 = private unnamed_addr constant [100 x i8] c"generated/home/dtcxzyw/WorkSpace/Projects/compilers/llvm-opt-benchmark/bench/hdf5/hdf5/src/H5Eint.c\00", align 1
@.str.2 = private unnamed_addr constant [32 x i8] c"interface initialization failed\00", align 1
@H5E_stack_g = global [1 x %struct.H5E_stack_t] zeroinitializer, align 16
@.str.7 = private unnamed_addr constant [30 x i8] c"can't get current error stack\00", align 1
@__func__.H5E_clear_stack = private unnamed_addr constant [16 x i8] c"H5E_clear_stack\00", align 1
@.str.15 = private unnamed_addr constant [24 x i8] c"can't clear error stack\00", align 1

; Function Attrs: nounwind uwtable
define i32 @H5E_clear_stack() #0 {
  %1 = alloca ptr, align 8
  %2 = alloca i32, align 4
  %3 = alloca i8, align 1
  call void @llvm.lifetime.start.p0(i64 8, ptr %1) #9
  call void @llvm.lifetime.start.p0(i64 4, ptr %2) #9
  store i32 0, ptr %2, align 4, !tbaa !3
  call void @llvm.lifetime.start.p0(i64 1, ptr %3) #9
  store i8 0, ptr %3, align 1, !tbaa !7
  %4 = load i8, ptr @H5E_init_g, align 1, !tbaa !7, !range !9, !noundef !10
  %5 = trunc i8 %4 to i1
  br i1 %5, label %10, label %6

6:                                                ; preds = %0
  %7 = load i8, ptr @H5_libterm_g, align 1, !tbaa !7, !range !9, !noundef !10
  %8 = trunc i8 %7 to i1
  %9 = xor i1 %8, true
  br label %10

10:                                               ; preds = %6, %0
  %11 = phi i1 [ false, %0 ], [ %9, %6 ]
  %12 = xor i1 %11, true
  %13 = xor i1 %12, true
  %14 = zext i1 %13 to i32
  %15 = sext i32 %14 to i64
  %16 = call i64 @llvm.expect.i64(i64 %15, i64 0)
  %17 = icmp ne i64 %16, 0
  br i1 %17, label %18, label %41

18:                                               ; preds = %10
  store i8 1, ptr @H5E_init_g, align 1, !tbaa !7
  %19 = call i32 @H5E__init_package()
  %20 = icmp slt i32 %19, 0
  br i1 %20, label %21, label %40

21:                                               ; preds = %18
  store i8 0, ptr @H5E_init_g, align 1, !tbaa !7
  br label %22

22:                                               ; preds = %21
  br label %23

23:                                               ; preds = %22
  br label %24

24:                                               ; preds = %23
  %25 = load i64, ptr @H5E_FUNC_g, align 8, !tbaa !11
  %26 = load i64, ptr @H5E_CANTINIT_g, align 8, !tbaa !11
  %27 = call i32 (ptr, ptr, i32, i64, i64, ptr, ...) @H5E_printf_stack(ptr noundef @.str.1, ptr noundef @__func__.H5E_clear_stack, i32 noundef 1849, i64 noundef %25, i64 noundef %26, ptr noundef @.str.2)
  br label %28

28:                                               ; preds = %24
  br label %29

29:                                               ; preds = %28
  store i8 1, ptr %3, align 1, !tbaa !7
  %30 = load i8, ptr %3, align 1, !tbaa !7, !range !9, !noundef !10
  %31 = trunc i8 %30 to i1
  %32 = zext i1 %31 to i8
  store i8 %32, ptr %3, align 1, !tbaa !7
  br label %33

33:                                               ; preds = %29
  br label %34

34:                                               ; preds = %33
  br label %35

35:                                               ; preds = %34
  store i32 -1, ptr %2, align 4, !tbaa !3
  br label %109

36:                                               ; No predecessors!
  br label %37

37:                                               ; preds = %36
  br label %38

38:                                               ; preds = %37
  br label %39

39:                                               ; preds = %38
  br label %40

40:                                               ; preds = %39, %18
  br label %41

41:                                               ; preds = %40, %10
  %42 = load i8, ptr @H5E_init_g, align 1, !tbaa !7, !range !9, !noundef !10
  %43 = trunc i8 %42 to i1
  br i1 %43, label %48, label %44

44:                                               ; preds = %41
  %45 = load i8, ptr @H5_libterm_g, align 1, !tbaa !7, !range !9, !noundef !10
  %46 = trunc i8 %45 to i1
  %47 = xor i1 %46, true
  br label %48

48:                                               ; preds = %44, %41
  %49 = phi i1 [ true, %41 ], [ %47, %44 ]
  %50 = xor i1 %49, true
  %51 = xor i1 %50, true
  %52 = zext i1 %51 to i32
  %53 = sext i32 %52 to i64
  %54 = call i64 @llvm.expect.i64(i64 %53, i64 1)
  %55 = icmp ne i64 %54, 0
  br i1 %55, label %56, label %110

56:                                               ; preds = %48
  store ptr @H5E_stack_g, ptr %1, align 8, !tbaa !16
  br i1 false, label %57, label %76

57:                                               ; preds = %56
  br label %58

58:                                               ; preds = %57
  br label %59

59:                                               ; preds = %58
  br label %60

60:                                               ; preds = %59
  %61 = load i64, ptr @H5E_ERROR_g, align 8, !tbaa !11
  %62 = load i64, ptr @H5E_CANTGET_g, align 8, !tbaa !11
  %63 = call i32 (ptr, ptr, i32, i64, i64, ptr, ...) @H5E_printf_stack(ptr noundef @.str.1, ptr noundef @__func__.H5E_clear_stack, i32 noundef 1853, i64 noundef %61, i64 noundef %62, ptr noundef @.str.7)
  br label %64

64:                                               ; preds = %60
  br label %65

65:                                               ; preds = %64
  store i8 1, ptr %3, align 1, !tbaa !7
  %66 = load i8, ptr %3, align 1, !tbaa !7, !range !9, !noundef !10
  %67 = trunc i8 %66 to i1
  %68 = zext i1 %67 to i8
  store i8 %68, ptr %3, align 1, !tbaa !7
  br label %69

69:                                               ; preds = %65
  br label %70

70:                                               ; preds = %69
  br label %71

71:                                               ; preds = %70
  store i32 -1, ptr %2, align 4, !tbaa !3
  br label %109

72:                                               ; No predecessors!
  br label %73

73:                                               ; preds = %72
  br label %74

74:                                               ; preds = %73
  br label %75

75:                                               ; preds = %74
  br label %76

76:                                               ; preds = %75, %56
  %77 = load ptr, ptr %1, align 8, !tbaa !16
  %78 = getelementptr inbounds nuw %struct.H5E_stack_t, ptr %77, i32 0, i32 0
  %79 = load i64, ptr %78, align 8, !tbaa !21
  %80 = icmp ne i64 %79, 0
  br i1 %80, label %81, label %108

81:                                               ; preds = %76
  %82 = load ptr, ptr %1, align 8, !tbaa !16
  %83 = load ptr, ptr %1, align 8, !tbaa !16
  %84 = getelementptr inbounds nuw %struct.H5E_stack_t, ptr %83, i32 0, i32 0
  %85 = load i64, ptr %84, align 8, !tbaa !21
  %86 = call i32 @H5E__clear_entries(ptr noundef %82, i64 noundef %85)
  %87 = icmp slt i32 %86, 0
  br i1 %87, label %88, label %107

88:                                               ; preds = %81
  br label %89

89:                                               ; preds = %88
  br label %90

90:                                               ; preds = %89
  br label %91

91:                                               ; preds = %90
  %92 = load i64, ptr @H5E_ERROR_g, align 8, !tbaa !11
  %93 = load i64, ptr @H5E_CANTSET_g, align 8, !tbaa !11
  %94 = call i32 (ptr, ptr, i32, i64, i64, ptr, ...) @H5E_printf_stack(ptr noundef @.str.1, ptr noundef @__func__.H5E_clear_stack, i32 noundef 1858, i64 noundef %92, i64 noundef %93, ptr noundef @.str.15)
  br label %95

95:                                               ; preds = %91
  br label %96

96:                                               ; preds = %95
  store i8 1, ptr %3, align 1, !tbaa !7
  %97 = load i8, ptr %3, align 1, !tbaa !7, !range !9, !noundef !10
  %98 = trunc i8 %97 to i1
  %99 = zext i1 %98 to i8
  store i8 %99, ptr %3, align 1, !tbaa !7
  br label %100

100:                                              ; preds = %96
  br label %101

101:                                              ; preds = %100
  br label %102

102:                                              ; preds = %101
  store i32 -1, ptr %2, align 4, !tbaa !3
  br label %109

103:                                              ; No predecessors!
  br label %104

104:                                              ; preds = %103
  br label %105

105:                                              ; preds = %104
  br label %106

106:                                              ; preds = %105
  br label %107

107:                                              ; preds = %106, %81
  br label %108

108:                                              ; preds = %107, %76
  br label %109

109:                                              ; preds = %108, %102, %71, %35
  br label %110

110:                                              ; preds = %109, %48
  %111 = load i32, ptr %2, align 4, !tbaa !3
  call void @llvm.lifetime.end.p0(i64 1, ptr %3) #9
  call void @llvm.lifetime.end.p0(i64 4, ptr %2) #9
  call void @llvm.lifetime.end.p0(i64 8, ptr %1) #9
  ret i32 %111
}