; Function Attrs: nounwind uwtable
define range(i32 -1, 1) i32 @H5E_clear_stack() local_unnamed_addr #0 {
  %1 = load i8, ptr @H5E_init_g, align 1, !tbaa !3, !range !7, !noundef !8
  %2 = trunc nuw i8 %1 to i1
  %3 = load i8, ptr @H5_libterm_g, align 1, !range !7
  %4 = trunc nuw i8 %3 to i1
  %5 = select i1 %2, i1 true, i1 %4
  br i1 %5, label %13, label %6, !prof !9

6:                                                ; preds = %0
  store i8 1, ptr @H5E_init_g, align 1, !tbaa !3
  %7 = tail call i32 @H5E__init_package()
  %8 = icmp slt i32 %7, 0
  br i1 %8, label %9, label %._crit_edge

._crit_edge:                                      ; preds = %6
  %.pre = load i8, ptr @H5E_init_g, align 1, !tbaa !3, !range !7
  %.pre6 = load i8, ptr @H5_libterm_g, align 1, !range !7
  %.pre7 = trunc nuw i8 %.pre to i1
  %.pre8 = trunc nuw i8 %.pre6 to i1
  br label %13

9:                                                ; preds = %6
  store i8 0, ptr @H5E_init_g, align 1, !tbaa !3
  %10 = load i64, ptr @H5E_FUNC_g, align 8, !tbaa !10
  %11 = load i64, ptr @H5E_CANTINIT_g, align 8, !tbaa !10
  %12 = tail call i32 (ptr, ptr, i32, i64, i64, ptr, ...) @H5E_printf_stack(ptr noundef nonnull @.str.1, ptr noundef nonnull @__func__.H5E_clear_stack, i32 noundef 1849, i64 noundef %10, i64 noundef %11, ptr noundef nonnull @.str.2)
  br label %25

13:                                               ; preds = %._crit_edge, %0
  %.pre-phi9 = phi i1 [ %.pre8, %._crit_edge ], [ %4, %0 ]
  %.pre-phi = phi i1 [ %.pre7, %._crit_edge ], [ %2, %0 ]
  %14 = xor i1 %.pre-phi9, true
  %15 = select i1 %.pre-phi, i1 true, i1 %14
  br i1 %15, label %16, label %25, !prof !9

16:                                               ; preds = %13
  %17 = load i64, ptr @H5E_stack_g, align 16, !tbaa !13
  %.not = icmp eq i64 %17, 0
  br i1 %.not, label %25, label %18

18:                                               ; preds = %16
  %19 = tail call fastcc i32 @H5E__clear_entries(ptr noundef nonnull @H5E_stack_g, i64 noundef %17)
  %20 = icmp slt i32 %19, 0
  br i1 %20, label %21, label %25

21:                                               ; preds = %18
  %22 = load i64, ptr @H5E_ERROR_g, align 8, !tbaa !10
  %23 = load i64, ptr @H5E_CANTSET_g, align 8, !tbaa !10
  %24 = tail call i32 (ptr, ptr, i32, i64, i64, ptr, ...) @H5E_printf_stack(ptr noundef nonnull @.str.1, ptr noundef nonnull @__func__.H5E_clear_stack, i32 noundef 1858, i64 noundef %22, i64 noundef %23, ptr noundef nonnull @.str.15)
  br label %25

25:                                               ; preds = %9, %21, %18, %16, %13
  %.0 = phi i32 [ -1, %9 ], [ -1, %21 ], [ 0, %18 ], [ 0, %16 ], [ 0, %13 ]
  ret i32 %.0
}